; Function Attrs: null_pointer_is_valid sspstrong uwtable
define internal void @glxGetLightiv_Reply(ptr noundef %0, ptr noundef readonly captures(none) %1, ptr noundef captures(none) %2, ptr noundef %3, i32 noundef %4) #1 {
  %6 = getelementptr inbounds nuw i8, ptr %1, i64 8
  %7 = load ptr, ptr %6, align 8
  tail call void (ptr, i32, ptr, ...) @col_append_fstr(ptr noundef %7, i32 noundef 25, ptr noundef nonnull @.str.15079)
  %8 = load i32, ptr @hf_x11_reply, align 4
  %9 = tail call fastcc i32 @field8(ptr noundef %0, ptr noundef %2, ptr noundef %3, i32 noundef %8, i32 noundef %4)
  %10 = load i32, ptr @hf_x11_unused, align 4
  %11 = load i32, ptr %2, align 4
  %12 = tail call ptr @proto_tree_add_item(ptr noundef %3, i32 noundef %10, ptr noundef %0, i32 noundef %11, i32 noundef 1, i32 noundef 0)
  %13 = load i32, ptr %2, align 4
  %14 = add i32 %13, 1
  store i32 %14, ptr %2, align 4
  %15 = tail call zeroext i16 @tvb_get_uint16(ptr noundef %0, i32 noundef %14, i32 noundef %4)
  %16 = zext i16 %15 to i32
  %17 = load i32, ptr @hf_x11_reply_sequencenumber, align 4
  %18 = load i32, ptr %2, align 4
  %19 = tail call ptr (ptr, i32, ptr, i32, i32, i32, ptr, ...) @proto_tree_add_uint_format_value(ptr noundef %3, i32 noundef %17, ptr noundef %0, i32 noundef %18, i32 noundef 2, i32 noundef %16, ptr noundef nonnull @.str.15080, i32 noundef %16)
  %20 = load i32, ptr %2, align 4
  %21 = add i32 %20, 2
  store i32 %21, ptr %2, align 4
  %22 = load i32, ptr @hf_x11_replylength, align 4
  %23 = tail call ptr @proto_tree_add_item(ptr noundef %3, i32 noundef %22, ptr noundef %0, i32 noundef %21, i32 noundef 4, i32 noundef %4)
  %24 = load i32, ptr %2, align 4
  %25 = add i32 %24, 4
  store i32 %25, ptr %2, align 4
  %26 = load i32, ptr @hf_x11_unused, align 4
  %27 = tail call ptr @proto_tree_add_item(ptr noundef %3, i32 noundef %26, ptr noundef %0, i32 noundef %25, i32 noundef 4, i32 noundef 0)
  %28 = load i32, ptr %2, align 4
  %29 = add i32 %28, 4
  store i32 %29, ptr %2, align 4
  %30 = tail call i32 @tvb_get_uint32(ptr noundef %0, i32 noundef %29, i32 noundef %4)
  %31 = load i32, ptr @hf_x11_glx_GetLightiv_reply_n, align 4
  %32 = load i32, ptr %2, align 4
  %33 = tail call ptr @proto_tree_add_item(ptr noundef %3, i32 noundef %31, ptr noundef %0, i32 noundef %32, i32 noundef 4, i32 noundef %4)
  %34 = load i32, ptr %2, align 4
  %35 = add i32 %34, 4
  store i32 %35, ptr %2, align 4
  %36 = load i32, ptr @hf_x11_glx_GetLightiv_reply_datum, align 4
  %37 = tail call ptr @proto_tree_add_item(ptr noundef %3, i32 noundef %36, ptr noundef %0, i32 noundef %35, i32 noundef 4, i32 noundef %4)
  %38 = load i32, ptr %2, align 4
  %39 = add i32 %38, 4
  store i32 %39, ptr %2, align 4
  %40 = load i32, ptr @hf_x11_unused, align 4
  %41 = tail call ptr @proto_tree_add_item(ptr noundef %3, i32 noundef %40, ptr noundef %0, i32 noundef %39, i32 noundef 12, i32 noundef 0)
  %42 = load i32, ptr %2, align 4
  %43 = add i32 %42, 12
  store i32 %43, ptr %2, align 4
  %44 = load i32, ptr @hf_x11_glx_GetLightiv_reply_data, align 4
  %45 = load i32, ptr @hf_x11_glx_GetLightiv_reply_data_item, align 4
  %46 = shl i32 %30, 2
  %47 = tail call ptr @proto_tree_add_item(ptr noundef %3, i32 noundef %44, ptr noundef %0, i32 noundef %43, i32 noundef %46, i32 noundef %4)
  %48 = load i32, ptr @ett_x11_list_of_card32, align 4
  %49 = tail call ptr @proto_item_add_subtree(ptr noundef %47, i32 noundef %48)
  %.not13.i = icmp eq i32 %30, 0
  br i1 %.not13.i, label %listOfInt32.exit, label %.lr.ph.preheader.i

.lr.ph.preheader.i:                               ; preds = %5
  %.pre.i = load i32, ptr %2, align 4
  br label %.lr.ph.i

.lr.ph.i:                                         ; preds = %.lr.ph.i, %.lr.ph.preheader.i
  %50 = phi i32 [ %54, %.lr.ph.i ], [ %.pre.i, %.lr.ph.preheader.i ]
  %.014.i = phi i32 [ %51, %.lr.ph.i ], [ %30, %.lr.ph.preheader.i ]
  %51 = add i32 %.014.i, -1
  %52 = tail call ptr @proto_tree_add_item(ptr noundef %49, i32 noundef %45, ptr noundef %0, i32 noundef %50, i32 noundef 4, i32 noundef %4)
  %53 = load i32, ptr %2, align 4
  %54 = add i32 %53, 4
  store i32 %54, ptr %2, align 4
  %.not.i = icmp eq i32 %51, 0
  br i1 %.not.i, label %listOfInt32.exit, label %.lr.ph.i, !llvm.loop !62

listOfInt32.exit:                                 ; preds = %.lr.ph.i, %5
  ret void
}